; Function Attrs: mustprogress uwtable
define hidden noundef ptr @_ZN7datalog30finite_product_relation_plugin8mk_emptyERKNS_23finite_product_relationE(ptr noundef nonnull align 8 dereferenceable(112) %this, ptr noundef nonnull align 8 dereferenceable(160) %original) local_unnamed_addr #3 align 2 {
entry:
  %m_signature.i = getelementptr inbounds i8, ptr %original, i64 16
  %m_kind.i = getelementptr inbounds i8, ptr %original, i64 24
  %0 = load i32, ptr %m_kind.i, align 8
  %vtable = load ptr, ptr %this, align 8
  %vfn = getelementptr inbounds i8, ptr %vtable, i64 48
  %1 = load ptr, ptr %vfn, align 8
  %call3 = tail call noundef ptr %1(ptr noundef nonnull align 8 dereferenceable(112) %this, ptr noundef nonnull align 8 dereferenceable(8) %m_signature.i, i32 noundef %0)
  ret ptr %call3
}